target datalayout = "e-m:e-p270:32:32-p271:32:32-p272:64:64-i64:64-i128:128-f80:128-n8:16:32:64-S128"
target triple = "x86_64-pc-linux-gnu"

; Function Attrs: nounwind uwtable
define i32 @Kit_PlaIsInv(ptr noundef %0) #0 {
  %2 = alloca i32, align 4
  %3 = alloca ptr, align 8
  store ptr %0, ptr %3, align 8, !tbaa !3
  %4 = load ptr, ptr %3, align 8, !tbaa !3
  %5 = getelementptr inbounds i8, ptr %4, i64 4
  %6 = load i8, ptr %5, align 1, !tbaa !8
  %7 = sext i8 %6 to i32
  %8 = icmp ne i32 %7, 0
  br i1 %8, label %9, label %10

9:                                                ; preds = %1
  store i32 0, ptr %2, align 4
  br label %36

10:                                               ; preds = %1
  %11 = load ptr, ptr %3, align 8, !tbaa !3
  %12 = getelementptr inbounds i8, ptr %11, i64 0
  %13 = load i8, ptr %12, align 1, !tbaa !8
  %14 = sext i8 %13 to i32
  %15 = icmp eq i32 %14, 48
  br i1 %15, label %16, label %22

16:                                               ; preds = %10
  %17 = load ptr, ptr %3, align 8, !tbaa !3
  %18 = getelementptr inbounds i8, ptr %17, i64 2
  %19 = load i8, ptr %18, align 1, !tbaa !8
  %20 = sext i8 %19 to i32
  %21 = icmp eq i32 %20, 49
  br i1 %21, label %34, label %22

22:                                               ; preds = %16, %10
  %23 = load ptr, ptr %3, align 8, !tbaa !3
  %24 = getelementptr inbounds i8, ptr %23, i64 0
  %25 = load i8, ptr %24, align 1, !tbaa !8
  %26 = sext i8 %25 to i32
  %27 = icmp eq i32 %26, 49
  br i1 %27, label %28, label %35

28:                                               ; preds = %22
  %29 = load ptr, ptr %3, align 8, !tbaa !3
  %30 = getelementptr inbounds i8, ptr %29, i64 2
  %31 = load i8, ptr %30, align 1, !tbaa !8
  %32 = sext i8 %31 to i32
  %33 = icmp eq i32 %32, 48
  br i1 %33, label %34, label %35

34:                                               ; preds = %28, %16
  store i32 1, ptr %2, align 4
  br label %36

35:                                               ; preds = %28, %22
  store i32 0, ptr %2, align 4
  br label %36

36:                                               ; preds = %35, %34, %9
  %37 = load i32, ptr %2, align 4
  ret i32 %37
}